target datalayout = "e-m:e-p270:32:32-p271:32:32-p272:64:64-i64:64-i128:128-f80:128-n8:16:32:64-S128"
target triple = "x86_64-pc-linux-gnu"

%struct.H5G_entry_t = type { i32, %union.H5G_cache_t, i64, i64 }
%union.H5G_cache_t = type { %struct.anon }
%struct.anon = type { i64, i64 }
%struct.anon.0 = type { i64 }
%struct.H5O_link_t = type { i32, i8, i64, i32, ptr, %union.anon }
%union.anon = type { %struct.H5O_link_ud_t }
%struct.H5O_link_ud_t = type { ptr, i64 }
%struct.H5O_link_soft_t = type { ptr }
%struct.H5O_link_hard_t = type { i64 }

@.str = private unnamed_addr constant [100 x i8] c"generated/home/dtcxzyw/WorkSpace/Projects/compilers/llvm-opt-benchmark/bench/hdf5/hdf5/src/H5Gent.c\00", align 1
@H5E_SYM_g = external global i64, align 8
@H5E_BADVALUE_g = external global i64, align 8
@__func__.H5G__ent_to_link = private unnamed_addr constant [17 x i8] c"H5G__ent_to_link\00", align 1
@H5E_CANTGET_g = external global i64, align 8
@.str.6 = private unnamed_addr constant [37 x i8] c"unable to get symbol table link name\00", align 1
@.str.7 = private unnamed_addr constant [30 x i8] c"unable to duplicate link name\00", align 1
@.str.8 = private unnamed_addr constant [18 x i8] c"invalid link name\00", align 1
@.str.9 = private unnamed_addr constant [33 x i8] c"unable to get symbolic link name\00", align 1
@.str.10 = private unnamed_addr constant [39 x i8] c"unable to duplicate symbolic link name\00", align 1

; Function Attrs: nounwind uwtable
define i32 @H5G__ent_to_link(ptr noundef %0, ptr noundef %1, ptr noundef %2) #0 {
  %4 = alloca ptr, align 8
  %5 = alloca ptr, align 8
  %6 = alloca ptr, align 8
  %7 = alloca ptr, align 8
  %8 = alloca i64, align 8
  %9 = alloca i8, align 1
  %10 = alloca i32, align 4
  %11 = alloca i8, align 1
  %12 = alloca ptr, align 8
  store ptr %0, ptr %4, align 8
  store ptr %1, ptr %5, align 8
  store ptr %2, ptr %6, align 8
  store i8 0, ptr %9, align 1
  store i32 0, ptr %10, align 4
  store i8 0, ptr %11, align 1
  %13 = load ptr, ptr %6, align 8
  %14 = getelementptr inbounds %struct.H5O_link_t, ptr %13, i32 0, i32 0
  store i32 -1, ptr %14, align 8
  %15 = load ptr, ptr %6, align 8
  %16 = getelementptr inbounds %struct.H5O_link_t, ptr %15, i32 0, i32 1
  store i8 0, ptr %16, align 4
  %17 = load ptr, ptr %6, align 8
  %18 = getelementptr inbounds %struct.H5O_link_t, ptr %17, i32 0, i32 2
  store i64 0, ptr %18, align 8
  %19 = load ptr, ptr %6, align 8
  %20 = getelementptr inbounds %struct.H5O_link_t, ptr %19, i32 0, i32 3
  store i32 0, ptr %20, align 8
  %21 = load ptr, ptr %6, align 8
  %22 = getelementptr inbounds %struct.H5O_link_t, ptr %21, i32 0, i32 4
  store ptr null, ptr %22, align 8
  %23 = load ptr, ptr %5, align 8
  %24 = call i64 @H5HL_heap_get_size(ptr noundef %23)
  store i64 %24, ptr %8, align 8
  %25 = load ptr, ptr %5, align 8
  %26 = load ptr, ptr %4, align 8
  %27 = getelementptr inbounds %struct.H5G_entry_t, ptr %26, i32 0, i32 2
  %28 = load i64, ptr %27, align 8
  %29 = call ptr @H5HL_offset_into(ptr noundef %25, i64 noundef %28)
  store ptr %29, ptr %7, align 8
  %30 = icmp eq ptr null, %29
  br i1 %30, label %31, label %46

31:                                               ; preds = %3
  br label %32

32:                                               ; preds = %31
  br label %33

33:                                               ; preds = %32
  br label %34

34:                                               ; preds = %33
  %35 = load i64, ptr @H5E_SYM_g, align 8
  %36 = load i64, ptr @H5E_CANTGET_g, align 8
  %37 = call i32 (ptr, ptr, i32, i64, i64, ptr, ...) @H5E_printf_stack(ptr noundef @.str, ptr noundef @__func__.H5G__ent_to_link, i32 noundef 380, i64 noundef %35, i64 noundef %36, ptr noundef @.str.6)
  br label %38

38:                                               ; preds = %34
  store i8 1, ptr %11, align 1
  %39 = load i8, ptr %11, align 1
  %40 = trunc i8 %39 to i1
  %41 = zext i1 %40 to i8
  store i8 %41, ptr %11, align 1
  br label %42

42:                                               ; preds = %38
  br label %43

43:                                               ; preds = %42
  store i32 -1, ptr %10, align 4
  br label %162

44:                                               ; No predecessors!
  br label %45

45:                                               ; preds = %44
  br label %46

46:                                               ; preds = %45, %3
  %47 = load ptr, ptr %7, align 8
  %48 = load i64, ptr %8, align 8
  %49 = load ptr, ptr %4, align 8
  %50 = getelementptr inbounds %struct.H5G_entry_t, ptr %49, i32 0, i32 2
  %51 = load i64, ptr %50, align 8
  %52 = sub i64 %48, %51
  %53 = call noalias ptr @H5MM_strndup(ptr noundef %47, i64 noundef %52)
  %54 = load ptr, ptr %6, align 8
  %55 = getelementptr inbounds %struct.H5O_link_t, ptr %54, i32 0, i32 4
  store ptr %53, ptr %55, align 8
  %56 = icmp eq ptr null, %53
  br i1 %56, label %57, label %72

57:                                               ; preds = %46
  br label %58

58:                                               ; preds = %57
  br label %59

59:                                               ; preds = %58
  br label %60

60:                                               ; preds = %59
  %61 = load i64, ptr @H5E_SYM_g, align 8
  %62 = load i64, ptr @H5E_CANTGET_g, align 8
  %63 = call i32 (ptr, ptr, i32, i64, i64, ptr, ...) @H5E_printf_stack(ptr noundef @.str, ptr noundef @__func__.H5G__ent_to_link, i32 noundef 383, i64 noundef %61, i64 noundef %62, ptr noundef @.str.7)
  br label %64

64:                                               ; preds = %60
  store i8 1, ptr %11, align 1
  %65 = load i8, ptr %11, align 1
  %66 = trunc i8 %65 to i1
  %67 = zext i1 %66 to i8
  store i8 %67, ptr %11, align 1
  br label %68

68:                                               ; preds = %64
  br label %69

69:                                               ; preds = %68
  store i32 -1, ptr %10, align 4
  br label %162

70:                                               ; No predecessors!
  br label %71

71:                                               ; preds = %70
  br label %72

72:                                               ; preds = %71, %46
  %73 = load ptr, ptr %6, align 8
  %74 = getelementptr inbounds %struct.H5O_link_t, ptr %73, i32 0, i32 4
  %75 = load ptr, ptr %74, align 8
  %76 = load i8, ptr %75, align 1
  %77 = icmp ne i8 %76, 0
  br i1 %77, label %93, label %78

78:                                               ; preds = %72
  br label %79

79:                                               ; preds = %78
  br label %80

80:                                               ; preds = %79
  br label %81

81:                                               ; preds = %80
  %82 = load i64, ptr @H5E_SYM_g, align 8
  %83 = load i64, ptr @H5E_BADVALUE_g, align 8
  %84 = call i32 (ptr, ptr, i32, i64, i64, ptr, ...) @H5E_printf_stack(ptr noundef @.str, ptr noundef @__func__.H5G__ent_to_link, i32 noundef 385, i64 noundef %82, i64 noundef %83, ptr noundef @.str.8)
  br label %85

85:                                               ; preds = %81
  store i8 1, ptr %11, align 1
  %86 = load i8, ptr %11, align 1
  %87 = trunc i8 %86 to i1
  %88 = zext i1 %87 to i8
  store i8 %88, ptr %11, align 1
  br label %89

89:                                               ; preds = %85
  br label %90

90:                                               ; preds = %89
  store i32 -1, ptr %10, align 4
  br label %162

91:                                               ; No predecessors!
  br label %92

92:                                               ; preds = %91
  br label %93

93:                                               ; preds = %92, %72
  %94 = load ptr, ptr %4, align 8
  %95 = getelementptr inbounds %struct.H5G_entry_t, ptr %94, i32 0, i32 0
  %96 = load i32, ptr %95, align 8
  %97 = icmp eq i32 %96, 2
  br i1 %97, label %98, label %152

98:                                               ; preds = %93
  %99 = load ptr, ptr %5, align 8
  %100 = load ptr, ptr %4, align 8
  %101 = getelementptr inbounds %struct.H5G_entry_t, ptr %100, i32 0, i32 1
  %102 = getelementptr inbounds %struct.anon.0, ptr %101, i32 0, i32 0
  %103 = load i64, ptr %102, align 8
  %104 = call ptr @H5HL_offset_into(ptr noundef %99, i64 noundef %103)
  store ptr %104, ptr %12, align 8
  %105 = icmp eq ptr null, %104
  br i1 %105, label %106, label %121

106:                                              ; preds = %98
  br label %107

107:                                              ; preds = %106
  br label %108

108:                                              ; preds = %107
  br label %109

109:                                              ; preds = %108
  %110 = load i64, ptr @H5E_SYM_g, align 8
  %111 = load i64, ptr @H5E_CANTGET_g, align 8
  %112 = call i32 (ptr, ptr, i32, i64, i64, ptr, ...) @H5E_printf_stack(ptr noundef @.str, ptr noundef @__func__.H5G__ent_to_link, i32 noundef 392, i64 noundef %110, i64 noundef %111, ptr noundef @.str.9)
  br label %113

113:                                              ; preds = %109
  store i8 1, ptr %11, align 1
  %114 = load i8, ptr %11, align 1
  %115 = trunc i8 %114 to i1
  %116 = zext i1 %115 to i8
  store i8 %116, ptr %11, align 1
  br label %117

117:                                              ; preds = %113
  br label %118

118:                                              ; preds = %117
  store i32 -1, ptr %10, align 4
  br label %162

119:                                              ; No predecessors!
  br label %120

120:                                              ; preds = %119
  br label %121

121:                                              ; preds = %120, %98
  %122 = load ptr, ptr %12, align 8
  %123 = load i64, ptr %8, align 8
  %124 = load ptr, ptr %4, align 8
  %125 = getelementptr inbounds %struct.H5G_entry_t, ptr %124, i32 0, i32 1
  %126 = getelementptr inbounds %struct.anon.0, ptr %125, i32 0, i32 0
  %127 = load i64, ptr %126, align 8
  %128 = sub i64 %123, %127
  %129 = call noalias ptr @H5MM_strndup(ptr noundef %122, i64 noundef %128)
  %130 = load ptr, ptr %6, align 8
  %131 = getelementptr inbounds %struct.H5O_link_t, ptr %130, i32 0, i32 5
  %132 = getelementptr inbounds %struct.H5O_link_soft_t, ptr %131, i32 0, i32 0
  store ptr %129, ptr %132, align 8
  %133 = icmp eq ptr null, %129
  br i1 %133, label %134, label %149

134:                                              ; preds = %121
  br label %135

135:                                              ; preds = %134
  br label %136

136:                                              ; preds = %135
  br label %137

137:                                              ; preds = %136
  %138 = load i64, ptr @H5E_SYM_g, align 8
  %139 = load i64, ptr @H5E_CANTGET_g, align 8
  %140 = call i32 (ptr, ptr, i32, i64, i64, ptr, ...) @H5E_printf_stack(ptr noundef @.str, ptr noundef @__func__.H5G__ent_to_link, i32 noundef 396, i64 noundef %138, i64 noundef %139, ptr noundef @.str.10)
  br label %141

141:                                              ; preds = %137
  store i8 1, ptr %11, align 1
  %142 = load i8, ptr %11, align 1
  %143 = trunc i8 %142 to i1
  %144 = zext i1 %143 to i8
  store i8 %144, ptr %11, align 1
  br label %145

145:                                              ; preds = %141
  br label %146

146:                                              ; preds = %145
  store i32 -1, ptr %10, align 4
  br label %162

147:                                              ; No predecessors!
  br label %148

148:                                              ; preds = %147
  br label %149

149:                                              ; preds = %148, %121
  store i8 1, ptr %9, align 1
  %150 = load ptr, ptr %6, align 8
  %151 = getelementptr inbounds %struct.H5O_link_t, ptr %150, i32 0, i32 0
  store i32 1, ptr %151, align 8
  br label %161

152:                                              ; preds = %93
  %153 = load ptr, ptr %4, align 8
  %154 = getelementptr inbounds %struct.H5G_entry_t, ptr %153, i32 0, i32 3
  %155 = load i64, ptr %154, align 8
  %156 = load ptr, ptr %6, align 8
  %157 = getelementptr inbounds %struct.H5O_link_t, ptr %156, i32 0, i32 5
  %158 = getelementptr inbounds %struct.H5O_link_hard_t, ptr %157, i32 0, i32 0
  store i64 %155, ptr %158, align 8
  %159 = load ptr, ptr %6, align 8
  %160 = getelementptr inbounds %struct.H5O_link_t, ptr %159, i32 0, i32 0
  store i32 0, ptr %160, align 8
  br label %161

161:                                              ; preds = %152, %149
  br label %162

162:                                              ; preds = %161, %146, %118, %90, %69, %43
  %163 = load i32, ptr %10, align 4
  %164 = icmp slt i32 %163, 0
  br i1 %164, label %165, label %190

165:                                              ; preds = %162
  %166 = load ptr, ptr %6, align 8
  %167 = getelementptr inbounds %struct.H5O_link_t, ptr %166, i32 0, i32 4
  %168 = load ptr, ptr %167, align 8
  %169 = icmp ne ptr %168, null
  br i1 %169, label %170, label %175

170:                                              ; preds = %165
  %171 = load ptr, ptr %6, align 8
  %172 = getelementptr inbounds %struct.H5O_link_t, ptr %171, i32 0, i32 4
  %173 = load ptr, ptr %172, align 8
  %174 = call ptr @H5MM_xfree(ptr noundef %173)
  br label %175

175:                                              ; preds = %170, %165
  %176 = load ptr, ptr %4, align 8
  %177 = getelementptr inbounds %struct.H5G_entry_t, ptr %176, i32 0, i32 0
  %178 = load i32, ptr %177, align 8
  %179 = icmp eq i32 %178, 2
  br i1 %179, label %180, label %189

180:                                              ; preds = %175
  %181 = load i8, ptr %9, align 1
  %182 = trunc i8 %181 to i1
  br i1 %182, label %183, label %189

183:                                              ; preds = %180
  %184 = load ptr, ptr %6, align 8
  %185 = getelementptr inbounds %struct.H5O_link_t, ptr %184, i32 0, i32 5
  %186 = getelementptr inbounds %struct.H5O_link_soft_t, ptr %185, i32 0, i32 0
  %187 = load ptr, ptr %186, align 8
  %188 = call ptr @H5MM_xfree(ptr noundef %187)
  br label %189

189:                                              ; preds = %183, %180, %175
  br label %190

190:                                              ; preds = %189, %162
  %191 = load i32, ptr %10, align 4
  ret i32 %191
}