; Function Attrs: nounwind uwtable
define range(i32 -1, 1) i32 @H5G__ent_to_link(ptr nocapture noundef readonly %0, ptr noundef %1, ptr nocapture noundef %2) local_unnamed_addr #0 {
  store i32 -1, ptr %2, align 8
  %4 = getelementptr inbounds i8, ptr %2, i64 4
  store i8 0, ptr %4, align 4
  %5 = getelementptr inbounds i8, ptr %2, i64 8
  store i64 0, ptr %5, align 8
  %6 = getelementptr inbounds i8, ptr %2, i64 16
  store i32 0, ptr %6, align 8
  %7 = getelementptr inbounds i8, ptr %2, i64 24
  store ptr null, ptr %7, align 8
  %8 = tail call i64 @H5HL_heap_get_size(ptr noundef %1) #9
  %9 = getelementptr inbounds i8, ptr %0, i64 24
  %10 = load i64, ptr %9, align 8
  %11 = tail call ptr @H5HL_offset_into(ptr noundef %1, i64 noundef %10) #9
  %12 = icmp eq ptr %11, null
  br i1 %12, label %13, label %17

13:                                               ; preds = %3
  %14 = load i64, ptr @H5E_SYM_g, align 8
  %15 = load i64, ptr @H5E_CANTGET_g, align 8
  %16 = tail call i32 (ptr, ptr, i32, i64, i64, ptr, ...) @H5E_printf_stack(ptr noundef nonnull @.str, ptr noundef nonnull @__func__.H5G__ent_to_link, i32 noundef 380, i64 noundef %14, i64 noundef %15, ptr noundef nonnull @.str.6) #9
  br label %59

17:                                               ; preds = %3
  %18 = load i64, ptr %9, align 8
  %19 = sub i64 %8, %18
  %20 = tail call noalias ptr @H5MM_strndup(ptr noundef nonnull %11, i64 noundef %19) #9
  store ptr %20, ptr %7, align 8
  %21 = icmp eq ptr %20, null
  br i1 %21, label %22, label %26

22:                                               ; preds = %17
  %23 = load i64, ptr @H5E_SYM_g, align 8
  %24 = load i64, ptr @H5E_CANTGET_g, align 8
  %25 = tail call i32 (ptr, ptr, i32, i64, i64, ptr, ...) @H5E_printf_stack(ptr noundef nonnull @.str, ptr noundef nonnull @__func__.H5G__ent_to_link, i32 noundef 383, i64 noundef %23, i64 noundef %24, ptr noundef nonnull @.str.7) #9
  br label %59

26:                                               ; preds = %17
  %27 = load i8, ptr %20, align 1
  %.not = icmp eq i8 %27, 0
  br i1 %.not, label %28, label %32

28:                                               ; preds = %26
  %29 = load i64, ptr @H5E_SYM_g, align 8
  %30 = load i64, ptr @H5E_BADVALUE_g, align 8
  %31 = tail call i32 (ptr, ptr, i32, i64, i64, ptr, ...) @H5E_printf_stack(ptr noundef nonnull @.str, ptr noundef nonnull @__func__.H5G__ent_to_link, i32 noundef 385, i64 noundef %29, i64 noundef %30, ptr noundef nonnull @.str.8) #9
  br label %59

32:                                               ; preds = %26
  %33 = load i32, ptr %0, align 8
  %34 = icmp eq i32 %33, 2
  br i1 %34, label %35, label %55

35:                                               ; preds = %32
  %36 = getelementptr inbounds i8, ptr %0, i64 8
  %37 = load i64, ptr %36, align 8
  %38 = tail call ptr @H5HL_offset_into(ptr noundef %1, i64 noundef %37) #9
  %39 = icmp eq ptr %38, null
  br i1 %39, label %40, label %44

40:                                               ; preds = %35
  %41 = load i64, ptr @H5E_SYM_g, align 8
  %42 = load i64, ptr @H5E_CANTGET_g, align 8
  %43 = tail call i32 (ptr, ptr, i32, i64, i64, ptr, ...) @H5E_printf_stack(ptr noundef nonnull @.str, ptr noundef nonnull @__func__.H5G__ent_to_link, i32 noundef 392, i64 noundef %41, i64 noundef %42, ptr noundef nonnull @.str.9) #9
  br label %59

44:                                               ; preds = %35
  %45 = load i64, ptr %36, align 8
  %46 = sub i64 %8, %45
  %47 = tail call noalias ptr @H5MM_strndup(ptr noundef nonnull %38, i64 noundef %46) #9
  %48 = getelementptr inbounds i8, ptr %2, i64 32
  store ptr %47, ptr %48, align 8
  %49 = icmp eq ptr %47, null
  br i1 %49, label %50, label %54

50:                                               ; preds = %44
  %51 = load i64, ptr @H5E_SYM_g, align 8
  %52 = load i64, ptr @H5E_CANTGET_g, align 8
  %53 = tail call i32 (ptr, ptr, i32, i64, i64, ptr, ...) @H5E_printf_stack(ptr noundef nonnull @.str, ptr noundef nonnull @__func__.H5G__ent_to_link, i32 noundef 396, i64 noundef %51, i64 noundef %52, ptr noundef nonnull @.str.10) #9
  br label %59

54:                                               ; preds = %44
  store i32 1, ptr %2, align 8
  br label %63

55:                                               ; preds = %32
  %56 = getelementptr inbounds i8, ptr %0, i64 32
  %57 = load i64, ptr %56, align 8
  %58 = getelementptr inbounds i8, ptr %2, i64 32
  store i64 %57, ptr %58, align 8
  store i32 0, ptr %2, align 8
  br label %63

59:                                               ; preds = %13, %22, %40, %50, %28
  %60 = load ptr, ptr %7, align 8
  %.not40 = icmp eq ptr %60, null
  br i1 %.not40, label %63, label %61

61:                                               ; preds = %59
  %62 = tail call ptr @H5MM_xfree(ptr noundef nonnull %60) #9
  br label %63

63:                                               ; preds = %59, %61, %55, %54
  %.03544 = phi i32 [ 0, %54 ], [ 0, %55 ], [ -1, %61 ], [ -1, %59 ]
  ret i32 %.03544
}